target datalayout = "e-m:e-p270:32:32-p271:32:32-p272:64:64-i64:64-i128:128-f80:128-n8:16:32:64-S128"
target triple = "x86_64-pc-linux-gnu"

%struct._packet_info = type { ptr, ptr, i32, i32, %struct.nstime_t, %struct.nstime_t, %struct.nstime_t, i8, ptr, ptr, ptr, ptr, %struct._address, %struct._address, %struct._address, %struct._address, %struct._address, %struct._address, i32, ptr, i8, [3 x i8], %struct.anon, i32, i32, i32, i32, ptr, i8, ptr, ptr, i16, i16, i32, i32, i16, i32, i32, ptr, ptr, ptr, i8, i8, i16, i16, i16, i32, i16, i16, ptr, ptr, ptr, ptr, ptr, i32, i32 }
%struct.nstime_t = type { i64, i32 }
%struct._address = type { i32, i32, ptr, ptr }
%struct.anon = type { i8, [3 x i8] }

@hf_docsis_cwt_trans_id = internal global i32 0, align 4
@hf_docsis_cwt_sub_band_id = internal global i32 0, align 4
@hf_docsis_cwt_op_code = internal global i32 0, align 4
@ett_docsis_cwt_req = internal global i32 0, align 4
@proto_docsis_cwt_req = internal global i32 0, align 4
@cwt_op_code_vals = internal constant [3 x { i32, [4 x i8], ptr }] [{ i32, [4 x i8], ptr } { i32 1, [4 x i8] zeroinitializer, ptr @.str.1970 }, { i32, [4 x i8], ptr } { i32 2, [4 x i8] zeroinitializer, ptr @.str.2016 }, { i32, [4 x i8], ptr } zeroinitializer], align 16
@.str.2237 = private unnamed_addr constant [32 x i8] c"CWT-REQ %s ID %u on sub-band %u\00", align 1
@.str.2238 = private unnamed_addr constant [21 x i8] c"Unknown Op Code (%u)\00", align 1

; Function Attrs: null_pointer_is_valid sspstrong uwtable
define internal i32 @dissect_cwt_req(ptr noundef %0, ptr noundef %1, ptr noundef %2, ptr noundef %3) #0 {
  %5 = alloca ptr, align 8
  %6 = alloca ptr, align 8
  %7 = alloca ptr, align 8
  %8 = alloca ptr, align 8
  %9 = alloca ptr, align 8
  %10 = alloca ptr, align 8
  %11 = alloca ptr, align 8
  %12 = alloca i32, align 4
  %13 = alloca i32, align 4
  %14 = alloca i32, align 4
  %15 = alloca i32, align 4
  store ptr %0, ptr %5, align 8
  store ptr %1, ptr %6, align 8
  store ptr %2, ptr %7, align 8
  store ptr %3, ptr %8, align 8
  call void @llvm.lifetime.start.p0(i64 8, ptr %9) #6
  call void @llvm.lifetime.start.p0(i64 8, ptr %10) #6
  call void @llvm.lifetime.start.p0(i64 8, ptr %11) #6
  store ptr null, ptr %11, align 8
  call void @llvm.lifetime.start.p0(i64 4, ptr %12) #6
  call void @llvm.lifetime.start.p0(i64 4, ptr %13) #6
  call void @llvm.lifetime.start.p0(i64 4, ptr %14) #6
  call void @llvm.lifetime.start.p0(i64 4, ptr %15) #6
  store i32 0, ptr %15, align 4
  %16 = load ptr, ptr %7, align 8
  %17 = load i32, ptr @proto_docsis_cwt_req, align 4
  %18 = load ptr, ptr %5, align 8
  %19 = call ptr @proto_tree_add_item(ptr noundef %16, i32 noundef %17, ptr noundef %18, i32 noundef 0, i32 noundef -1, i32 noundef 0)
  store ptr %19, ptr %9, align 8
  %20 = load ptr, ptr %9, align 8
  %21 = load i32, ptr @ett_docsis_cwt_req, align 4
  %22 = call ptr @proto_item_add_subtree(ptr noundef %20, i32 noundef %21)
  store ptr %22, ptr %10, align 8
  %23 = load ptr, ptr %10, align 8
  %24 = load i32, ptr @hf_docsis_cwt_trans_id, align 4
  %25 = load ptr, ptr %5, align 8
  %26 = call ptr @proto_tree_add_item_ret_uint(ptr noundef %23, i32 noundef %24, ptr noundef %25, i32 noundef 0, i32 noundef 1, i32 noundef 0, ptr noundef %12)
  %27 = load ptr, ptr %10, align 8
  %28 = load i32, ptr @hf_docsis_cwt_sub_band_id, align 4
  %29 = load ptr, ptr %5, align 8
  %30 = call ptr @proto_tree_add_item_ret_uint(ptr noundef %27, i32 noundef %28, ptr noundef %29, i32 noundef 1, i32 noundef 1, i32 noundef 0, ptr noundef %13)
  %31 = load ptr, ptr %10, align 8
  %32 = load i32, ptr @hf_docsis_cwt_op_code, align 4
  %33 = load ptr, ptr %5, align 8
  %34 = call ptr @proto_tree_add_item_ret_uint(ptr noundef %31, i32 noundef %32, ptr noundef %33, i32 noundef 2, i32 noundef 1, i32 noundef 0, ptr noundef %14)
  %35 = load ptr, ptr %6, align 8
  %36 = getelementptr inbounds nuw %struct._packet_info, ptr %35, i32 0, i32 1
  %37 = load ptr, ptr %36, align 8
  %38 = load i32, ptr %14, align 4
  %39 = call ptr @val_to_str(i32 noundef %38, ptr noundef @cwt_op_code_vals, ptr noundef @.str.2238)
  %40 = load i32, ptr %12, align 4
  %41 = load i32, ptr %13, align 4
  call void (ptr, i32, ptr, ...) @col_add_fstr(ptr noundef %37, i32 noundef 25, ptr noundef @.str.2237, ptr noundef %39, i32 noundef %40, i32 noundef %41)
  %42 = load i32, ptr %12, align 4
  %43 = shl i32 %42, 8
  %44 = load i32, ptr %13, align 4
  %45 = add i32 %43, %44
  store i32 %45, ptr %15, align 4
  %46 = load ptr, ptr %5, align 8
  %47 = load ptr, ptr %6, align 8
  %48 = load ptr, ptr %10, align 8
  %49 = load ptr, ptr %8, align 8
  %50 = load i32, ptr %15, align 4
  %51 = call ptr @dissect_multipart(ptr noundef %46, ptr noundef %47, ptr noundef %48, ptr noundef %49, i32 noundef 63, i32 noundef %50, i32 noundef 3)
  store ptr %51, ptr %11, align 8
  %52 = load ptr, ptr %11, align 8
  %53 = icmp ne ptr %52, null
  br i1 %53, label %54, label %65

54:                                               ; preds = %4
  %55 = load ptr, ptr %11, align 8
  %56 = call i32 @tvb_captured_length(ptr noundef %55)
  %57 = icmp ne i32 %56, 0
  br i1 %57, label %58, label %65

58:                                               ; preds = %54
  %59 = load ptr, ptr %11, align 8
  %60 = load ptr, ptr %6, align 8
  %61 = load ptr, ptr %9, align 8
  %62 = load ptr, ptr %10, align 8
  %63 = load ptr, ptr %11, align 8
  %64 = call i32 @tvb_reported_length(ptr noundef %63)
  call void @dissect_cwt_tlv(ptr noundef %59, ptr noundef %60, ptr noundef %61, ptr noundef %62, i32 noundef 0, i32 noundef %64)
  br label %65

65:                                               ; preds = %58, %54, %4
  %66 = load ptr, ptr %5, align 8
  %67 = call i32 @tvb_captured_length(ptr noundef %66)
  call void @llvm.lifetime.end.p0(i64 4, ptr %15) #6
  call void @llvm.lifetime.end.p0(i64 4, ptr %14) #6
  call void @llvm.lifetime.end.p0(i64 4, ptr %13) #6
  call void @llvm.lifetime.end.p0(i64 4, ptr %12) #6
  call void @llvm.lifetime.end.p0(i64 8, ptr %11) #6
  call void @llvm.lifetime.end.p0(i64 8, ptr %10) #6
  call void @llvm.lifetime.end.p0(i64 8, ptr %9) #6
  ret i32 %67
}