; Function Attrs: null_pointer_is_valid sspstrong uwtable
define internal i32 @dissect_cwt_req(ptr noundef %0, ptr noundef %1, ptr noundef %2, ptr readnone captures(none) %3) #0 {
  %5 = alloca i32, align 4
  %6 = alloca i32, align 4
  %7 = alloca i32, align 4
  call void @llvm.lifetime.start.p0(i64 4, ptr nonnull %5) #6
  call void @llvm.lifetime.start.p0(i64 4, ptr nonnull %6) #6
  call void @llvm.lifetime.start.p0(i64 4, ptr nonnull %7) #6
  %8 = load i32, ptr @proto_docsis_cwt_req, align 4
  %9 = tail call ptr @proto_tree_add_item(ptr noundef %2, i32 noundef %8, ptr noundef %0, i32 noundef 0, i32 noundef -1, i32 noundef 0)
  %10 = load i32, ptr @ett_docsis_cwt_req, align 4
  %11 = tail call ptr @proto_item_add_subtree(ptr noundef %9, i32 noundef %10)
  %12 = load i32, ptr @hf_docsis_cwt_trans_id, align 4
  %13 = call ptr @proto_tree_add_item_ret_uint(ptr noundef %11, i32 noundef %12, ptr noundef %0, i32 noundef 0, i32 noundef 1, i32 noundef 0, ptr noundef nonnull %5)
  %14 = load i32, ptr @hf_docsis_cwt_sub_band_id, align 4
  %15 = call ptr @proto_tree_add_item_ret_uint(ptr noundef %11, i32 noundef %14, ptr noundef %0, i32 noundef 1, i32 noundef 1, i32 noundef 0, ptr noundef nonnull %6)
  %16 = load i32, ptr @hf_docsis_cwt_op_code, align 4
  %17 = call ptr @proto_tree_add_item_ret_uint(ptr noundef %11, i32 noundef %16, ptr noundef %0, i32 noundef 2, i32 noundef 1, i32 noundef 0, ptr noundef nonnull %7)
  %18 = getelementptr inbounds nuw i8, ptr %1, i64 8
  %19 = load ptr, ptr %18, align 8
  %20 = load i32, ptr %7, align 4
  %21 = call ptr @val_to_str(i32 noundef %20, ptr noundef nonnull @cwt_op_code_vals, ptr noundef nonnull @.str.2238)
  %22 = load i32, ptr %5, align 4
  %23 = load i32, ptr %6, align 4
  call void (ptr, i32, ptr, ...) @col_add_fstr(ptr noundef %19, i32 noundef 25, ptr noundef nonnull @.str.2237, ptr noundef %21, i32 noundef %22, i32 noundef %23)
  %24 = load i32, ptr %5, align 4
  %25 = shl i32 %24, 8
  %26 = load i32, ptr %6, align 4
  %27 = add i32 %25, %26
  %28 = call fastcc ptr @dissect_multipart(ptr noundef %0, ptr noundef %1, ptr noundef %11, i32 noundef 63, i32 noundef %27, i32 noundef 3)
  %.not = icmp eq ptr %28, null
  br i1 %.not, label %33, label %29

29:                                               ; preds = %4
  %30 = call i32 @tvb_captured_length(ptr noundef nonnull %28)
  %.not22 = icmp eq i32 %30, 0
  br i1 %.not22, label %33, label %31

31:                                               ; preds = %29
  %32 = call i32 @tvb_reported_length(ptr noundef nonnull %28)
  call fastcc void @dissect_cwt_tlv(ptr noundef %28, ptr noundef %1, ptr noundef %9, ptr noundef %11, i32 noundef %32)
  br label %33

33:                                               ; preds = %31, %29, %4
  %34 = call i32 @tvb_captured_length(ptr noundef %0)
  call void @llvm.lifetime.end.p0(i64 4, ptr nonnull %7) #6
  call void @llvm.lifetime.end.p0(i64 4, ptr nonnull %6) #6
  call void @llvm.lifetime.end.p0(i64 4, ptr nonnull %5) #6
  ret i32 %34
}